target datalayout = "e-m:e-p270:32:32-p271:32:32-p272:64:64-i64:64-i128:128-f80:128-n8:16:32:64-S128"
target triple = "x86_64-pc-linux-gnu"

%struct.lua_State = type { %struct.GCRef, i8, i8, i8, i8, %struct.MRef, %struct.GCRef, ptr, ptr, %struct.MRef, %struct.MRef, %struct.GCRef, %struct.GCRef, ptr, i32 }
%struct.MRef = type { i64 }
%struct.GCRef = type { i64 }
%union.TValue = type { i64 }
%struct.GCproto = type { %struct.GCRef, i8, i8, i8, i8, i32, i32, %struct.GCRef, %struct.MRef, %struct.MRef, i32, i32, i32, i8, i8, i16, %struct.GCRef, i32, i32, %struct.MRef, %struct.MRef, %struct.MRef }

@lj_bc_mode = external hidden constant [0 x i16], align 2

; Function Attrs: alwaysinline nounwind uwtable
define internal void @setintV(ptr noundef %0, i32 noundef %1) #5 {
  %3 = alloca ptr, align 8
  %4 = alloca i32, align 4
  store ptr %0, ptr %3, align 8, !tbaa !56
  store i32 %1, ptr %4, align 4, !tbaa !35
  %5 = load i32, ptr %4, align 4, !tbaa !35
  %6 = sitofp i32 %5 to double
  %7 = load ptr, ptr %3, align 8, !tbaa !56
  store double %6, ptr %7, align 8, !tbaa !37
  ret void
}

; Function Attrs: nounwind uwtable
define internal i32 @lj_cf_jit_util_funcbc(ptr noundef %0) #0 {
  %2 = alloca i32, align 4
  %3 = alloca ptr, align 8
  %4 = alloca ptr, align 8
  %5 = alloca i32, align 4
  %6 = alloca i32, align 4
  %7 = alloca i32, align 4
  %8 = alloca i32, align 4
  store ptr %0, ptr %3, align 8, !tbaa !4
  call void @llvm.lifetime.start.p0(i64 8, ptr %4) #9
  %9 = load ptr, ptr %3, align 8, !tbaa !4
  %10 = call ptr @lj_lib_checkLproto(ptr noundef %9, i32 noundef 1, i32 noundef 0)
  store ptr %10, ptr %4, align 8, !tbaa !70
  call void @llvm.lifetime.start.p0(i64 4, ptr %5) #9
  %11 = load ptr, ptr %3, align 8, !tbaa !4
  %12 = call i32 @lj_lib_checkint(ptr noundef %11, i32 noundef 2)
  store i32 %12, ptr %5, align 4, !tbaa !35
  %13 = load i32, ptr %5, align 4, !tbaa !35
  %14 = load ptr, ptr %4, align 8, !tbaa !70
  %15 = getelementptr inbounds nuw %struct.GCproto, ptr %14, i32 0, i32 5
  %16 = load i32, ptr %15, align 4, !tbaa !76
  %17 = icmp ult i32 %13, %16
  br i1 %17, label %18, label %44

18:                                               ; preds = %1
  call void @llvm.lifetime.start.p0(i64 4, ptr %6) #9
  %19 = load ptr, ptr %4, align 8, !tbaa !70
  %20 = getelementptr inbounds nuw i8, ptr %19, i64 104
  %21 = load i32, ptr %5, align 4, !tbaa !35
  %22 = zext i32 %21 to i64
  %23 = getelementptr inbounds nuw i32, ptr %20, i64 %22
  %24 = load i32, ptr %23, align 4, !tbaa !35
  store i32 %24, ptr %6, align 4, !tbaa !35
  call void @llvm.lifetime.start.p0(i64 4, ptr %7) #9
  %25 = load i32, ptr %6, align 4, !tbaa !35
  %26 = and i32 %25, 255
  store i32 %26, ptr %7, align 4, !tbaa !35
  %27 = load ptr, ptr %3, align 8, !tbaa !4
  %28 = getelementptr inbounds nuw %struct.lua_State, ptr %27, i32 0, i32 8
  %29 = load ptr, ptr %28, align 8, !tbaa !16
  %30 = load i32, ptr %6, align 4, !tbaa !35
  call void @setintV(ptr noundef %29, i32 noundef %30)
  %31 = load ptr, ptr %3, align 8, !tbaa !4
  %32 = getelementptr inbounds nuw %struct.lua_State, ptr %31, i32 0, i32 8
  %33 = load ptr, ptr %32, align 8, !tbaa !16
  %34 = getelementptr inbounds %union.TValue, ptr %33, i64 1
  %35 = load i32, ptr %7, align 4, !tbaa !35
  %36 = zext i32 %35 to i64
  %37 = getelementptr inbounds nuw [0 x i16], ptr @lj_bc_mode, i64 0, i64 %36
  %38 = load i16, ptr %37, align 2, !tbaa !82
  %39 = zext i16 %38 to i32
  call void @setintV(ptr noundef %34, i32 noundef %39)
  %40 = load ptr, ptr %3, align 8, !tbaa !4
  %41 = getelementptr inbounds nuw %struct.lua_State, ptr %40, i32 0, i32 8
  %42 = load ptr, ptr %41, align 8, !tbaa !16
  %43 = getelementptr inbounds %union.TValue, ptr %42, i64 2
  store ptr %43, ptr %41, align 8, !tbaa !16
  store i32 2, ptr %2, align 4
  store i32 1, ptr %8, align 4
  call void @llvm.lifetime.end.p0(i64 4, ptr %7) #9
  call void @llvm.lifetime.end.p0(i64 4, ptr %6) #9
  br label %45

44:                                               ; preds = %1
  store i32 0, ptr %2, align 4
  store i32 1, ptr %8, align 4
  br label %45

45:                                               ; preds = %44, %18
  call void @llvm.lifetime.end.p0(i64 4, ptr %5) #9
  call void @llvm.lifetime.end.p0(i64 8, ptr %4) #9
  %46 = load i32, ptr %2, align 4
  ret i32 %46
}