; Function Attrs: nounwind uwtable
define internal range(i32 0, 3) i32 @lj_cf_jit_util_funcbc(ptr noundef %0) #0 {
  %2 = tail call ptr @lj_lib_checkLproto(ptr noundef %0, i32 noundef 1, i32 noundef 0) #8
  %3 = tail call i32 @lj_lib_checkint(ptr noundef %0, i32 noundef 2) #8
  %4 = getelementptr inbounds nuw i8, ptr %2, i64 12
  %5 = load i32, ptr %4, align 4, !tbaa !62
  %6 = icmp ult i32 %3, %5
  br i1 %6, label %7, label %24

7:                                                ; preds = %1
  %8 = getelementptr inbounds nuw i8, ptr %2, i64 104
  %9 = zext i32 %3 to i64
  %10 = getelementptr inbounds nuw i32, ptr %8, i64 %9
  %11 = load i32, ptr %10, align 4, !tbaa !14
  %12 = and i32 %11, 255
  %13 = getelementptr inbounds nuw i8, ptr %0, i64 40
  %14 = load ptr, ptr %13, align 8, !tbaa !32
  %15 = sitofp i32 %11 to double
  store double %15, ptr %14, align 8, !tbaa !34
  %16 = load ptr, ptr %13, align 8, !tbaa !32
  %17 = getelementptr inbounds nuw i8, ptr %16, i64 8
  %18 = zext nneg i32 %12 to i64
  %19 = getelementptr inbounds nuw [0 x i16], ptr @lj_bc_mode, i64 0, i64 %18
  %20 = load i16, ptr %19, align 2, !tbaa !68
  %21 = uitofp i16 %20 to double
  store double %21, ptr %17, align 8, !tbaa !34
  %22 = load ptr, ptr %13, align 8, !tbaa !32
  %23 = getelementptr inbounds nuw i8, ptr %22, i64 16
  store ptr %23, ptr %13, align 8, !tbaa !32
  br label %24

24:                                               ; preds = %1, %7
  %.0 = phi i32 [ 2, %7 ], [ 0, %1 ]
  ret i32 %.0
}